(dp0
S'cbcl'
p1
(lp2
(dp3
S'13/480'
p4
(lp5
I22
asasS'chore'
p6
(lp7
(dp8
S'13/481'
p9
(lp10
I735
asasS'forget'
p11
(lp12
(dp13
g9
(lp14
I113
asasVsoftwar
p15
(lp16
(dp17
g4
(lp18
I0
aI27
aI83
asasVsometim
p19
(lp20
(dp21
g9
(lp22
I586
asasVinsight
p23
(lp24
(dp25
g9
(lp26
I335
asasS'rest'
p27
(lp28
(dp29
g9
(lp30
I962
asasVpoorli
p31
(lp32
(dp33
g9
(lp34
I844
asasS'four'
p35
(lp36
(dp37
g9
(lp38
I83
aI522
aI679
aI765
aI848
aI988
asasValway
p39
(lp40
(dp41
g9
(lp42
I905
asasVpaper
p43
(lp44
(dp45
g9
(lp46
I68
aI157
aI493
aI520
aI687
aI696
aI707
aI724
aI732
aI808
aI821
aI828
aI854
aI926
aI965
aI992
aI1001
aI1010
aI1032
aI1052
asasVaspect
p47
(lp48
(dp49
g9
(lp50
I244
asasS'edu'
p51
(lp52
(dp53
g9
(lp54
I1124
asasS'go'
p55
(lp56
(dp57
g9
(lp58
I1091
asasVfollow
p59
(lp60
(dp61
g9
(lp62
I847
aI865
asasS'still'
p63
(lp64
(dp65
g9
(lp66
I202
asasVpowerset
p67
(lp68
(dp69
g9
(lp70
I14
asasS'scr'
p71
(lp72
(dp73
g9
(lp74
I33
asasS'xml'
p75
(lp76
(dp77
g9
(lp78
I51
asasVabsolut
p79
(lp80
(dp81
g9
(lp82
I305
asasS'style'
p83
(lp84
(dp85
g9
(lp86
I812
asasS'biosci'
p87
(lp88
(dp89
g9
(lp90
I1022
asasVeasi
p91
(lp92
(dp93
g9
(lp94
I358
aI439
aI467
asasS'field'
p95
(lp96
(dp97
g9
(lp98
I187
asasVgraph
p99
(lp100
(dp101
g9
(lp102
I13
asasS'fix'
p103
(lp104
(dp105
g9
(lp106
I142
asasS'show'
p107
(lp108
(dp109
g4
(lp110
I13
asasVreadabl
p111
(lp112
(dp113
g9
(lp114
I240
asasVstate
p115
(lp116
(dp117
g9
(lp118
I773
aI779
aI796
asasS'sitemap'
p119
(lp120
(dp121
g4
(lp122
I20
asasS'better'
p123
(lp124
(dp125
g9
(lp126
I991
asasS'eager'
p127
(lp128
(dp129
g9
(lp130
I123
asasS'program'
p131
(lp132
(dp133
g9
(lp134
I109
aI135
aI178
aI262
aI292
asasVpile
p135
(lp136
(dp137
g9
(lp138
I155
aI700
aI711
aI715
aI723
aI731
aI759
asasVpresent
p139
(lp140
(dp141
g9
(lp142
I28
aI241
asasVcooki
p143
(lp144
(dp145
g4
(lp146
I55
asasVsmile
p147
(lp148
(dp149
g9
(lp150
I726
asasS'lure'
p151
(lp152
(dp153
g9
(lp154
I1027
asasS'good'
p155
(lp156
(dp157
g9
(lp158
I0
aI2
aI837
asasVstring
p159
(lp160
(dp161
g9
(lp162
I16
asasS'get'
p163
(lp164
(dp165
g9
(lp166
I132
aI694
aI725
aI900
asa(dp167
g4
(lp168
I70
asasVread
p169
(lp170
(dp171
g9
(lp172
I212
aI540
aI620
aI657
aI717
aI960
aI1030
asasVsentenc
p173
(lp174
(dp175
g9
(lp176
I84
aI96
aI102
aI251
aI395
aI490
aI680
aI766
aI792
aI802
asasVlattic
p177
(lp178
(dp179
g9
(lp180
I12
asasS'answer'
p181
(lp182
(dp183
g9
(lp184
I1105
aI1114
asasS'made'
p185
(lp186
(dp187
g9
(lp188
I181
asasS'five'
p189
(lp190
(dp191
g9
(lp192
I297
aI462
asasS'know'
p193
(lp194
(dp195
g9
(lp196
I256
aI326
asasS'desk'
p197
(lp198
(dp199
g9
(lp200
I154
asasVincreas
p201
(lp202
(dp203
g9
(lp204
I857
aI878
asasS'world'
p205
(lp206
(dp207
g9
(lp208
I289
aI975
asasS'password'
p209
(lp210
(dp211
g4
(lp212
I63
aI68
aI77
asasS'exact'
p213
(lp214
(dp215
g9
(lp216
I1045
asasS'day'
p217
(lp218
(dp219
g9
(lp220
I295
asasS'vast'
p221
(lp222
(dp223
g9
(lp224
I121
asasVcostapierc
p225
(lp226
(dp227
g9
(lp228
I1017
asasVtri
p229
(lp230
(dp231
g9
(lp232
I762
aI1083
asasS'end'
p233
(lp234
(dp235
g9
(lp236
I215
asasS'cmu'
p237
(lp238
(dp239
g9
(lp240
I1061
asasVreluct
p241
(lp242
(dp243
g9
(lp244
I386
asasVharri
p245
(lp246
(dp247
g9
(lp248
I150
asasS'nt'
p249
(lp250
(dp251
g9
(lp252
I417
asasVdramat
p253
(lp254
(dp255
g9
(lp256
I856
asasVauthent
p257
(lp258
(dp259
g4
(lp260
I44
asasVdefens
p261
(lp262
(dp263
g9
(lp264
I479
aI593
aI607
asasVcollect
p265
(lp266
(dp267
g9
(lp268
I354
aI437
asasVsupplement
p269
(lp270
(dp271
g9
(lp272
I587
asasS'truth'
p273
(lp274
(dp275
g9
(lp276
I512
asasS'contain'
p277
(lp278
(dp279
g9
(lp280
I82
aI1050
asasS'pp429436'
p281
(lp282
(dp283
g9
(lp284
I59
asasS'grab'
p285
(lp286
(dp287
g9
(lp288
I171
asasVamaz
p289
(lp290
(dp291
g9
(lp292
I515
asasS'page'
p293
(lp294
(dp295
g4
(lp296
I14
asasS'familiar'
p297
(lp298
(dp299
g9
(lp300
I234
asasVsummari
p301
(lp302
(dp303
g9
(lp304
I681
aI1040
asasVset
p305
(lp306
(dp307
g9
(lp308
I7
aI11
asa(dp309
g4
(lp310
I75
asasS'old'
p311
(lp312
(dp313
g4
(lp314
I15
asasVincent
p315
(lp316
(dp317
g9
(lp318
I957
asasVidea
p319
(lp320
(dp321
g9
(lp322
I838
aI902
aI915
asasVrealli
p323
(lp324
(dp325
g9
(lp326
I577
aI612
asasS'resist'
p327
(lp328
(dp329
g9
(lp330
I938
asasVsecond
p331
(lp332
(dp333
g9
(lp334
I169
aI562
aI778
asasS'design'
p335
(lp336
(dp337
g9
(lp338
I40
asasVresult
p339
(lp340
(dp341
g9
(lp342
I1056
aI1075
aI1101
asasVyear
p343
(lp344
(dp345
g9
(lp346
I298
aI463
asasS'home'
p347
(lp348
(dp349
g9
(lp350
I4
aI6
asasVsolut
p351
(lp352
(dp353
g9
(lp354
I477
aI576
aI611
asasVwonder
p355
(lp356
(dp357
g9
(lp358
I920
asasS'even'
p359
(lp360
(dp361
g9
(lp362
I189
asasVbacklink
p363
(lp364
(dp365
g4
(lp366
I17
asasS'said'
p367
(lp368
(dp369
g9
(lp370
I104
aI379
asasS'network'
p371
(lp372
(dp373
g9
(lp374
I352
aI435
asasVexpert
p375
(lp376
(dp377
g9
(lp378
I184
aI211
asasVpattern
p379
(lp380
(dp381
g9
(lp382
I41
asasVsection
p383
(lp384
(dp385
g9
(lp386
I523
aI563
aI584
aI590
aI604
aI645
aI659
asasS'brief'
p387
(lp388
(dp389
g9
(lp390
I77
asasS'legal'
p391
(lp392
(dp393
g9
(lp394
I26
asasS'find'
p395
(lp396
(dp397
g9
(lp398
I268
aI338
aI970
aI1043
asasVcurrent
p399
(lp400
(dp401
g4
(lp402
I37
asasVusernam
p403
(lp404
(dp405
g4
(lp406
I62
asasS'written'
p407
(lp408
(dp409
g9
(lp410
I1014
asasS'kent'
p411
(lp412
(dp413
g9
(lp414
I54
asasS'reader'
p415
(lp416
(dp417
g9
(lp418
I364
aI955
aI1068
asasVprogress
p419
(lp420
(dp421
g9
(lp422
I884
aI1096
asasS'foo'
p423
(lp424
(dp425
g9
(lp426
I312
aI410
asasS'approach'
p427
(lp428
(dp429
g9
(lp430
I1087
asasS'alspaugh'
p431
(lp432
(dp433
g9
(lp434
I1119
aI1120
asasS'wide'
p435
(lp436
(dp437
g9
(lp438
I369
asasVmachin
p439
(lp440
(dp441
g4
(lp442
I3
aI8
asasS'ece'
p443
(lp444
(dp445
g9
(lp446
I1062
asasVappreci
p447
(lp448
(dp449
g9
(lp450
I126
asasS'xslt'
p451
(lp452
(dp453
g9
(lp454
I53
asasVgarbag
p455
(lp456
(dp457
g9
(lp458
I353
aI436
asasS'never'
p459
(lp460
(dp461
g9
(lp462
I112
aI322
asasVargu
p463
(lp464
(dp465
g9
(lp466
I942
asasS'lack'
p467
(lp468
(dp469
g9
(lp470
I835
asasVcycl
p471
(lp472
(dp473
g9
(lp474
I25
asasVreason
p475
(lp476
(dp477
g9
(lp478
I639
asasS'forgotten'
p479
(lp480
(dp481
g4
(lp482
I66
asasVbeliev
p483
(lp484
(dp485
g9
(lp486
I553
asasS'recent'
p487
(lp488
(dp489
g4
(lp490
I18
asasVsolv
p491
(lp492
(dp493
g9
(lp494
I532
aI559
aI579
aI613
aI630
aI1085
aI1093
asasS'java'
p495
(lp496
(dp497
g9
(lp498
I43
aI45
asasS'spark'
p499
(lp500
(dp501
g9
(lp502
I205
asasVcome
p503
(lp504
(dp505
g9
(lp506
I160
asasS'problem'
p507
(lp508
(dp509
g9
(lp510
I86
aI90
aI93
aI475
aI529
aI550
aI566
aI581
aI615
aI627
aI775
aI782
aI785
aI1072
aI1077
aI1080
aI1099
asasS'wait'
p511
(lp512
(dp513
g9
(lp514
I458
asasS'great'
p515
(lp516
(dp517
g9
(lp518
I334
aI895
asasVtoward
p519
(lp520
(dp521
g9
(lp522
I66
asasVactual
p523
(lp524
(dp525
g9
(lp526
I629
asasVgreatli
p527
(lp528
(dp529
g9
(lp530
I750
asasS'beck'
p531
(lp532
(dp533
g9
(lp534
I55
aI103
asasS'argument'
p535
(lp536
(dp537
g9
(lp538
I22
aI473
aI498
aI641
asasS'could'
p539
(lp540
(dp541
g9
(lp542
I578
aI977
asasS'area'
p543
(lp544
(dp545
g9
(lp546
I230
aI654
asasValon
p547
(lp548
(dp549
g9
(lp550
I930
asasVstep
p551
(lp552
(dp553
g9
(lp554
I850
aI867
aI989
asasS'keep'
p555
(lp556
(dp557
g9
(lp558
I209
aI742
asasS'thing'
p559
(lp560
(dp561
g9
(lp562
I271
aI342
aI983
asasVaudienc
p563
(lp564
(dp565
g9
(lp566
I128
asasVbeginn
p567
(lp568
(dp569
g9
(lp570
I198
asasS'stand'
p571
(lp572
(dp573
g9
(lp574
I495
asasVcommitte
p575
(lp576
(dp577
g9
(lp578
I110
aI136
aI179
aI263
aI508
asasS'logic'
p579
(lp580
(dp581
g9
(lp582
I17
asasVfals
p583
(lp584
(dp585
g9
(lp586
I450
asasVimprov
p587
(lp588
(dp589
g9
(lp590
I880
asasVimplement
p591
(lp592
(dp593
g9
(lp594
I599
asasS'think'
p595
(lp596
(dp597
g9
(lp598
I382
aI951
asasVchanc
p599
(lp600
(dp601
g9
(lp602
I753
aI859
asasS'first'
p603
(lp604
(dp605
g9
(lp606
I131
aI526
aI772
asasVconcret
p607
(lp608
(dp609
g9
(lp610
I402
asasS'arem'
p611
(lp612
(dp613
g4
(lp614
I2
aI84
asasS'feel'
p615
(lp616
(dp617
g9
(lp618
I906
asasVappli
p619
(lp620
(dp621
g9
(lp622
I72
asasVfoundat
p623
(lp624
(dp625
g9
(lp626
I5
asasS'one'
p627
(lp628
(dp629
g9
(lp630
I249
aI270
aI393
asa(dp631
g4
(lp632
I73
asasValreadi
p633
(lp634
(dp635
g9
(lp636
I1013
asasS'done'
p637
(lp638
(dp639
g9
(lp640
I345
aI539
aI651
aI671
aI809
asasS'fast'
p641
(lp642
(dp643
g9
(lp644
I356
asasVformerli
p645
(lp646
(dp647
g9
(lp648
I1019
asasVimport
p649
(lp650
(dp651
g9
(lp652
I557
aI1055
asasS'open'
p653
(lp654
(dp655
g9
(lp656
I368
aI398
asasVprimari
p657
(lp658
(dp659
g9
(lp660
I690
asasS'uci'
p661
(lp662
(dp663
g9
(lp664
I1021
aI1123
asa(dp665
g4
(lp666
I25
asasVhighli
p667
(lp668
(dp669
g9
(lp670
I221
asasS'enter'
p671
(lp672
(dp673
g4
(lp674
I42
asasS'use'
p675
(lp676
(dp677
g9
(lp678
I996
aI1006
asasVeye
p679
(lp680
(dp681
g9
(lp682
I366
asasVdescrib
p683
(lp684
(dp685
g9
(lp686
I527
aI564
aI598
aI646
asasS'would'
p687
(lp688
(dp689
g9
(lp690
I813
aI877
asasVcommun
p691
(lp692
(dp693
g9
(lp694
I872
aI876
asasVteach
p695
(lp696
(dp697
g4
(lp698
I30
asasVbioinformat
p699
(lp700
(dp701
g4
(lp702
I6
aI11
asasS'support'
p703
(lp704
(dp705
g9
(lp706
I935
asasS'night'
p707
(lp708
(dp709
g9
(lp710
I293
asasS'system'
p711
(lp712
(dp713
g9
(lp714
I313
aI411
asasVmessag
p715
(lp716
(dp717
g9
(lp718
I390
asasVimplic
p719
(lp720
(dp721
g9
(lp722
I98
aI798
aI1111
asasS'pc'
p723
(lp724
(dp725
g9
(lp726
I151
aI536
aI572
aI618
aI662
aI703
asasVslog
p727
(lp728
(dp729
g9
(lp730
I738
asasVinclud
p731
(lp732
(dp733
g9
(lp734
I304
asasS'statement'
p735
(lp736
(dp737
g9
(lp738
I87
aI444
aI516
aI1078
asasVbarri
p739
(lp740
(dp741
g9
(lp742
I1016
asasVstartl
p743
(lp744
(dp745
g9
(lp746
I95
aI101
aI250
aI394
aI489
aI791
aI801
asasVcare
p747
(lp748
(dp749
g9
(lp750
I959
aI1069
asasVtype
p751
(lp752
(dp753
g9
(lp754
I46
asasS'final'
p755
(lp756
(dp757
g9
(lp758
I644
asasS'boil'
p759
(lp760
(dp761
g9
(lp762
I388
asasVschema
p763
(lp764
(dp765
g9
(lp766
I52
asasS'sort'
p767
(lp768
(dp769
g9
(lp770
I705
asasVproject
p771
(lp772
(dp773
g4
(lp774
I33
asasS'nyah'
p775
(lp776
(dp777
g9
(lp778
I429
asasS'interest'
p779
(lp780
(dp781
g9
(lp782
I173
aI196
aI280
aI341
aI727
asasVpeopl
p783
(lp784
(dp785
g9
(lp786
I384
aI649
aI1028
asa(dp787
g4
(lp788
I29
asasVpublic
p789
(lp790
(dp791
g4
(lp792
I26
asasVrelat
p793
(lp794
(dp795
g9
(lp796
I8
aI27
aI481
aI595
asasVelicit
p797
(lp798
(dp799
g9
(lp800
I29
asasS'mine'
p801
(lp802
(dp803
g9
(lp804
I159
asasS'niftiest'
p805
(lp806
(dp807
g9
(lp808
I291
asasS'understand'
p809
(lp810
(dp811
g9
(lp812
I545
asasS'proven'
p813
(lp814
(dp815
g9
(lp816
I455
asasVintern
p817
(lp818
(dp819
g4
(lp820
I32
asasVrememb
p821
(lp822
(dp823
g9
(lp824
I175
asa(dp825
g4
(lp826
I64
asasS'catch'
p827
(lp828
(dp829
g9
(lp830
I278
asasS'90'
p831
(lp832
(dp833
g9
(lp834
I824
asasS'oopsla'
p835
(lp836
(dp837
g9
(lp838
I56
aI127
aI820
asasS'javadoc'
p839
(lp840
(dp841
g9
(lp842
I42
asasS'true'
p843
(lp844
(dp845
g9
(lp846
I448
asasVtechnic
p847
(lp848
(dp849
g9
(lp850
I222
asasVconclus
p851
(lp852
(dp853
g9
(lp854
I684
aI945
aI1107
asasS'must'
p855
(lp856
(dp857
g9
(lp858
I130
aI201
aI239
aI494
asasS'case'
p859
(lp860
(dp861
g9
(lp862
I471
asasS'past'
p863
(lp864
(dp865
g9
(lp866
I133
asasS'1993'
p867
(lp868
(dp869
g9
(lp870
I57
asasS'novel'
p871
(lp872
(dp873
g9
(lp874
I243
aI673
asasVlook
p875
(lp876
(dp877
g9
(lp878
I927
asasVpossibl
p879
(lp880
(dp881
g9
(lp882
I978
asasS'philip'
p883
(lp884
(dp885
g9
(lp886
I1058
asasVmsc
p887
(lp888
(dp889
g9
(lp890
I36
asasS'also'
p891
(lp892
(dp893
g9
(lp894
I71
asasS'work'
p895
(lp896
(dp897
g9
(lp898
I247
aI286
aI323
aI482
aI596
asasS'say'
p899
(lp900
(dp901
g9
(lp902
I275
aI414
aI434
aI979
asasVstructur
p903
(lp904
(dp905
g9
(lp906
I845
asasVexpr
p907
(lp908
(dp909
g9
(lp910
I38
asasVaim
p911
(lp912
(dp913
g9
(lp914
I65
asasVfunni
p915
(lp916
(dp917
g9
(lp918
I907
asasS'near'
p919
(lp920
(dp921
g9
(lp922
I823
asasS'neat'
p923
(lp924
(dp925
g9
(lp926
I418
asasVglori
p927
(lp928
(dp929
g9
(lp930
I317
asasVlearn
p931
(lp932
(dp933
g4
(lp934
I4
aI9
asasVglossari
p935
(lp936
(dp937
g9
(lp938
I20
aI23
aI30
asasS'login'
p939
(lp940
(dp941
g4
(lp942
I21
aI34
aI61
asasS'koopman'
p943
(lp944
(dp945
g9
(lp946
I1059
asasVpurpos
p947
(lp948
(dp949
g9
(lp950
I691
asasS'aia'
p951
(lp952
(dp953
g9
(lp954
I18
asasVeveryon
p955
(lp956
(dp957
g9
(lp958
I864
asasS'counter'
p959
(lp960
(dp961
g9
(lp962
I640
asasVevalu
p963
(lp964
(dp965
g9
(lp966
I1009
asasVgive
p967
(lp968
(dp969
g9
(lp970
I953
asasVcredenti
p971
(lp972
(dp973
g4
(lp974
I45
asasVabstract
p975
(lp976
(dp977
g9
(lp978
I1
aI3
aI21
aI74
aI80
aI676
aI719
aI744
aI769
aI805
aI896
aI910
aI948
aI1025
aI1035
asasS'mind'
p979
(lp980
(dp981
g9
(lp982
I145
asasVconvinc
p983
(lp984
(dp985
g9
(lp986
I505
aI570
aI624
aI666
asasVaccept
p987
(lp988
(dp989
g9
(lp990
I861
asasVcorrespond
p991
(lp992
(dp993
g9
(lp994
I9
asasS'topic'
p995
(lp996
(dp997
g9
(lp998
I192
aI219
asasVpictur
p999
(lp1000
(dp1001
g9
(lp1002
I147
asasVcritic
p1003
(lp1004
(dp1005
g9
(lp1006
I403
asasS'way'
p1007
(lp1008
(dp1009
g9
(lp1010
I912
asasVmotiv
p1011
(lp1012
(dp1013
g9
(lp1014
I1064
asasS'want'
p1015
(lp1016
(dp1017
g9
(lp1018
I273
aI362
aI968
asasVoutrag
p1019
(lp1020
(dp1021
g9
(lp1022
I982
asasVic
p1023
(lp1024
(dp1025
g9
(lp1026
I1122
asasVrevis
p1027
(lp1028
(dp1029
g4
(lp1030
I16
asasVpackag
p1031
(lp1032
(dp1033
g9
(lp1034
I44
asasVinquiri
p1035
(lp1036
(dp1037
g9
(lp1038
I24
asasVgoal
p1039
(lp1040
(dp1041
g9
(lp1042
I31
asasVadvic
p1043
(lp1044
(dp1045
g9
(lp1046
I63
asasVsit
p1047
(lp1048
(dp1049
g9
(lp1050
I931
asasS'make'
p1051
(lp1052
(dp1053
g9
(lp1054
I469
aI1095
asasVmayb
p1055
(lp1056
(dp1057
g9
(lp1058
I167
asasVexcel
p1059
(lp1060
(dp1061
g9
(lp1062
I62
asasVdetail
p1063
(lp1064
(dp1065
g9
(lp1066
I600
aI1046
asasS'contact'
p1067
(lp1068
(dp1069
g4
(lp1070
I31
asasS'member'
p1071
(lp1072
(dp1073
g9
(lp1074
I152
aI509
aI537
aI573
aI619
aI663
aI704
asasVbinari
p1075
(lp1076
(dp1077
g9
(lp1078
I15
asasS'need'
p1079
(lp1080
(dp1081
g9
(lp1082
I266
asa(dp1083
g4
(lp1084
I52
asasVvalid
p1085
(lp1086
(dp1087
g9
(lp1088
I501
asasS'fourth'
p1089
(lp1090
(dp1091
g9
(lp1092
I795
asasVreject
p1093
(lp1094
(dp1095
g9
(lp1096
I817
aI830
asasVthoma
p1097
(lp1098
(dp1099
g9
(lp1100
I1117
asasS'new'
p1101
(lp1102
(dp1103
g4
(lp1104
I72
aI76
asasVsimpl
p1105
(lp1106
(dp1107
g9
(lp1108
I849
asasVstart
p1109
(lp1110
(dp1111
g9
(lp1112
I923
asa(dp1113
g4
(lp1114
I82
asasS'rate'
p1115
(lp1116
(dp1117
g9
(lp1118
I818
aI882
asasVenabl
p1119
(lp1120
(dp1121
g4
(lp1122
I56
asasS'begin'
p1123
(lp1124
(dp1125
g9
(lp1126
I140
asasS'sure'
p1127
(lp1128
(dp1129
g9
(lp1130
I891
asasVpain
p1131
(lp1132
(dp1133
g9
(lp1134
I329
asasVthirti
p1135
(lp1136
(dp1137
g9
(lp1138
I168
asasVtrace
p1139
(lp1140
(dp1141
g9
(lp1142
I34
asasS'may'
p1143
(lp1144
(dp1145
g9
(lp1146
I225
asasS'broad'
p1147
(lp1148
(dp1149
g9
(lp1150
I195
asasVnake
p1151
(lp1152
(dp1153
g9
(lp1154
I928
asasVobject
p1155
(lp1156
(dp1157
g9
(lp1158
I447
aI875
asasS'upon'
p1159
(lp1160
(dp1161
g9
(lp1162
I656
asasVsomeon
p1163
(lp1164
(dp1165
g9
(lp1166
I413
asasS'lab'
p1167
(lp1168
(dp1169
g4
(lp1170
I7
aI12
aI23
asasS'top'
p1171
(lp1172
(dp1173
g9
(lp1174
I163
asasS'wrong'
p1175
(lp1176
(dp1177
g9
(lp1178
I456
asasS'regular'
p1179
(lp1180
(dp1181
g9
(lp1182
I37
asasVlog
p1183
(lp1184
(dp1185
g4
(lp1186
I39
aI48
aI58
asasS'html'
p1187
(lp1188
(dp1189
g9
(lp1190
I50
asasVenhanc
p1191
(lp1192
(dp1193
g9
(lp1194
I751
asasS'data'
p1195
(lp1196
(dp1197
g4
(lp1198
I28
asasVchang
p1199
(lp1200
(dp1201
g4
(lp1202
I19
asasS'succinct'
p1203
(lp1204
(dp1205
g9
(lp1206
I1039
asasVprove
p1207
(lp1208
(dp1209
g9
(lp1210
I464
asasS'short'
p1211
(lp1212
(dp1213
g9
(lp1214
I745
asasS'third'
p1215
(lp1216
(dp1217
g9
(lp1218
I603
aI788
asasS'amount'
p1219
(lp1220
(dp1221
g9
(lp1222
I870
asasS'clear'
p1223
(lp1224
(dp1225
g9
(lp1226
I747
asasVdivid
p1227
(lp1228
(dp1229
g9
(lp1230
I518
asasS'well'
p1231
(lp1232
(dp1233
g9
(lp1234
I886
asasS'spent'
p1235
(lp1236
(dp1237
g9
(lp1238
I461
asasVorder
p1239
(lp1240
(dp1241
g9
(lp1242
I10
asasS'thought'
p1243
(lp1244
(dp1245
g9
(lp1246
I636
aI917
asasS'greek'
p1247
(lp1248
(dp1249
g9
(lp1250
I19
asasVrealiz
p1251
(lp1252
(dp1253
g9
(lp1254
I372
asasVwrite
p1255
(lp1256
(dp1257
g9
(lp1258
I67
aI106
aI118
aI259
aI347
aI407
aI852
aI908
aI924
aI1000
asasVignor
p1259
(lp1260
(dp1261
g9
(lp1262
I331
asasS'2010feb24we2059'
p1263
(lp1264
(dp1265
g9
(lp1266
I1116
asasVtemptat
p1267
(lp1268
(dp1269
g9
(lp1270
I301
aI940
asasVrepli
p1271
(lp1272
(dp1273
g9
(lp1274
I423
asasS'alloy'
p1275
(lp1276
(dp1277
g9
(lp1278
I35
asasVbynowintrigu
p1279
(lp1280
(dp1281
g9
(lp1282
I507
asasVeveryth
p1283
(lp1284
(dp1285
g9
(lp1286
I306
asasVsequenti
p1287
(lp1288
(dp1289
g9
(lp1290
I998
asas.